; Function Attrs: inlinehint mustprogress optsize uwtable
define internal noundef ptr @"_ZZN8nanobind6detail11func_createILb0ELb1EZL32nanobind_init_test_functions_extRNS_7module_EE4$_84NS_5tupleEJiiiEJLm0ELm1ELm2EEJNS_5scopeENS_4nameENS_3argENS_7kw_onlyES8_S8_EEEP7_objectOT1_PFT2_DpT3_ESt16integer_sequenceImJXspT4_EEEDpRKT5_ENUlPvPSB_PhNS_9rv_policyEPNS0_12cleanup_listEE_8__invokeESP_SQ_SR_SS_SU_"(ptr readnone captures(none) %0, ptr noundef readonly captures(none) %1, ptr noundef readonly captures(none) %2, i32 %3, ptr readnone captures(none) %4) #15 align 2 personality ptr @__gxx_personality_v0 {
  %6 = alloca i32, align 4
  %7 = alloca i32, align 4
  %8 = alloca i32, align 4
  %9 = alloca %"struct.nanobind::detail::tuple.618", align 4
  %10 = alloca %"class.nanobind::tuple", align 8
  call void @llvm.lifetime.start.p0(i64 12, ptr nonnull %9) #27
  %11 = getelementptr inbounds nuw i8, ptr %9, i64 8
  %12 = load ptr, ptr %1, align 8, !tbaa !158
  %13 = load i8, ptr %2, align 1, !tbaa !41
  %14 = call noundef zeroext i1 @_ZN8nanobind6detail8load_i32EP7_objecthPi(ptr noundef %12, i8 noundef zeroext %13, ptr noundef nonnull align 4 dereferenceable(4) %11) #31
  br i1 %14, label %15, label %"_ZZN8nanobind6detail11func_createILb0ELb1EZL32nanobind_init_test_functions_extRNS_7module_EE4$_84NS_5tupleEJiiiEJLm0ELm1ELm2EEJNS_5scopeENS_4nameENS_3argENS_7kw_onlyES8_S8_EEEP7_objectOT1_PFT2_DpT3_ESt16integer_sequenceImJXspT4_EEEDpRKT5_ENKUlPvPSB_PhNS_9rv_policyEPNS0_12cleanup_listEE_clESP_SQ_SR_SS_SU_.exit"

15:                                               ; preds = %5
  %16 = getelementptr inbounds nuw i8, ptr %9, i64 4
  %17 = getelementptr inbounds nuw i8, ptr %1, i64 8
  %18 = load ptr, ptr %17, align 8, !tbaa !158
  %19 = getelementptr inbounds nuw i8, ptr %2, i64 1
  %20 = load i8, ptr %19, align 1, !tbaa !41
  %21 = call noundef zeroext i1 @_ZN8nanobind6detail8load_i32EP7_objecthPi(ptr noundef %18, i8 noundef zeroext %20, ptr noundef nonnull align 4 dereferenceable(4) %16) #31
  br i1 %21, label %22, label %"_ZZN8nanobind6detail11func_createILb0ELb1EZL32nanobind_init_test_functions_extRNS_7module_EE4$_84NS_5tupleEJiiiEJLm0ELm1ELm2EEJNS_5scopeENS_4nameENS_3argENS_7kw_onlyES8_S8_EEEP7_objectOT1_PFT2_DpT3_ESt16integer_sequenceImJXspT4_EEEDpRKT5_ENKUlPvPSB_PhNS_9rv_policyEPNS0_12cleanup_listEE_clESP_SQ_SR_SS_SU_.exit"

22:                                               ; preds = %15
  %23 = getelementptr inbounds nuw i8, ptr %1, i64 16
  %24 = load ptr, ptr %23, align 8, !tbaa !158
  %25 = getelementptr inbounds nuw i8, ptr %2, i64 2
  %26 = load i8, ptr %25, align 1, !tbaa !41
  %27 = call noundef zeroext i1 @_ZN8nanobind6detail8load_i32EP7_objecthPi(ptr noundef %24, i8 noundef zeroext %26, ptr noundef nonnull align 4 dereferenceable(4) %9) #31
  br i1 %27, label %28, label %"_ZZN8nanobind6detail11func_createILb0ELb1EZL32nanobind_init_test_functions_extRNS_7module_EE4$_84NS_5tupleEJiiiEJLm0ELm1ELm2EEJNS_5scopeENS_4nameENS_3argENS_7kw_onlyES8_S8_EEEP7_objectOT1_PFT2_DpT3_ESt16integer_sequenceImJXspT4_EEEDpRKT5_ENKUlPvPSB_PhNS_9rv_policyEPNS0_12cleanup_listEE_clESP_SQ_SR_SS_SU_.exit"

28:                                               ; preds = %22
  call void @llvm.lifetime.start.p0(i64 8, ptr nonnull %10) #27
  %29 = load i32, ptr %11, align 4, !tbaa !36
  %30 = load i32, ptr %16, align 4, !tbaa !36
  %31 = load i32, ptr %9, align 4, !tbaa !36
  call void @llvm.lifetime.start.p0(i64 4, ptr nonnull %6)
  call void @llvm.lifetime.start.p0(i64 4, ptr nonnull %7)
  call void @llvm.lifetime.start.p0(i64 4, ptr nonnull %8)
  store i32 %29, ptr %6, align 4, !tbaa !36, !noalias !381
  store i32 %30, ptr %7, align 4, !tbaa !36, !noalias !381
  store i32 %31, ptr %8, align 4, !tbaa !36, !noalias !381
  call void @_ZN8nanobind10make_tupleILNS_9rv_policyE0EJRiS2_S2_EEENS_5tupleEDpOT0_(ptr dead_on_unwind nonnull writable sret(%"class.nanobind::tuple") align 8 %10, ptr noundef nonnull align 4 dereferenceable(4) %6, ptr noundef nonnull align 4 dereferenceable(4) %7, ptr noundef nonnull align 4 dereferenceable(4) %8) #28
  call void @llvm.lifetime.end.p0(i64 4, ptr nonnull %6)
  call void @llvm.lifetime.end.p0(i64 4, ptr nonnull %7)
  call void @llvm.lifetime.end.p0(i64 4, ptr nonnull %8)
  %32 = load ptr, ptr %10, align 8, !tbaa !44
  store ptr null, ptr %10, align 8, !tbaa !44
  %33 = call noundef nonnull align 8 dereferenceable(8) ptr @_ZNKR8nanobind6handle7dec_refEv(ptr noundef nonnull align 8 dereferenceable(8) %10) #31
  call void @llvm.lifetime.end.p0(i64 8, ptr nonnull %10) #27
  br label %"_ZZN8nanobind6detail11func_createILb0ELb1EZL32nanobind_init_test_functions_extRNS_7module_EE4$_84NS_5tupleEJiiiEJLm0ELm1ELm2EEJNS_5scopeENS_4nameENS_3argENS_7kw_onlyES8_S8_EEEP7_objectOT1_PFT2_DpT3_ESt16integer_sequenceImJXspT4_EEEDpRKT5_ENKUlPvPSB_PhNS_9rv_policyEPNS0_12cleanup_listEE_clESP_SQ_SR_SS_SU_.exit"

"_ZZN8nanobind6detail11func_createILb0ELb1EZL32nanobind_init_test_functions_extRNS_7module_EE4$_84NS_5tupleEJiiiEJLm0ELm1ELm2EEJNS_5scopeENS_4nameENS_3argENS_7kw_onlyES8_S8_EEEP7_objectOT1_PFT2_DpT3_ESt16integer_sequenceImJXspT4_EEEDpRKT5_ENKUlPvPSB_PhNS_9rv_policyEPNS0_12cleanup_listEE_clESP_SQ_SR_SS_SU_.exit": ; preds = %5, %15, %22, %28
  %.0.i = phi ptr [ %32, %28 ], [ inttoptr (i64 1 to ptr), %22 ], [ inttoptr (i64 1 to ptr), %15 ], [ inttoptr (i64 1 to ptr), %5 ]
  call void @llvm.lifetime.end.p0(i64 12, ptr nonnull %9) #27
  ret ptr %.0.i
}